; Function Attrs: mustprogress nofree norecurse nosync nounwind willreturn memory(read, inaccessiblemem: none) uwtable
define hidden noundef zeroext i1 @_ZNK5ceres8internal19TripletSparseMatrix23AllTripletsWithinBoundsEv(ptr nocapture noundef nonnull readonly align 8 dereferenceable(48) %0) local_unnamed_addr #9 align 2 {
  %2 = getelementptr inbounds i8, ptr %0, i64 20
  %3 = load i32, ptr %2, align 4
  %4 = icmp slt i32 %3, 1
  br i1 %4, label %._crit_edge, label %.lr.ph

.lr.ph:                                           ; preds = %1
  %5 = getelementptr inbounds i8, ptr %0, i64 24
  %6 = load ptr, ptr %5, align 8
  %7 = getelementptr inbounds i8, ptr %0, i64 8
  %8 = load i32, ptr %7, align 8
  %9 = getelementptr inbounds i8, ptr %0, i64 32
  %10 = load ptr, ptr %9, align 8
  %11 = getelementptr inbounds i8, ptr %0, i64 12
  %12 = load i32, ptr %11, align 4
  %13 = zext nneg i32 %3 to i64
  %wide.trip.count = zext nneg i32 %3 to i64
  %14 = load i32, ptr %6, align 4
  %15 = icmp sgt i32 %14, -1
  %.not17 = icmp slt i32 %14, %8
  %or.cond18 = select i1 %15, i1 %.not17, i1 false
  br i1 %or.cond18, label %.lr.ph20, label %._crit_edge

16:                                               ; preds = %.lr.ph20
  %indvars.iv.next = add nuw nsw i64 %indvars.iv19, 1
  %17 = icmp uge i64 %indvars.iv.next, %13
  %exitcond = icmp eq i64 %indvars.iv.next, %wide.trip.count
  br i1 %exitcond, label %._crit_edge, label %18, !llvm.loop !15

18:                                               ; preds = %16
  %19 = getelementptr inbounds i32, ptr %6, i64 %indvars.iv.next
  %20 = load i32, ptr %19, align 4
  %21 = icmp sgt i32 %20, -1
  %.not = icmp slt i32 %20, %8
  %or.cond = select i1 %21, i1 %.not, i1 false
  br i1 %or.cond, label %.lr.ph20, label %._crit_edge, !llvm.loop !15

.lr.ph20:                                         ; preds = %.lr.ph, %18
  %22 = phi i1 [ %17, %18 ], [ false, %.lr.ph ]
  %indvars.iv19 = phi i64 [ %indvars.iv.next, %18 ], [ 0, %.lr.ph ]
  %23 = getelementptr inbounds i32, ptr %10, i64 %indvars.iv19
  %24 = load i32, ptr %23, align 4
  %25 = icmp sgt i32 %24, -1
  %.not8 = icmp slt i32 %24, %12
  %or.cond11 = select i1 %25, i1 %.not8, i1 false
  br i1 %or.cond11, label %16, label %._crit_edge

._crit_edge:                                      ; preds = %16, %18, %.lr.ph20, %.lr.ph, %1
  %.lcssa = phi i1 [ true, %1 ], [ false, %.lr.ph ], [ %22, %.lr.ph20 ], [ %17, %18 ], [ %17, %16 ]
  ret i1 %.lcssa
}